; Function Attrs: mustprogress nofree norecurse nosync nounwind willreturn memory(argmem: read) uwtable
define noundef zeroext i1 @_ZNK10misa_csr_t23extension_enabled_constEh(ptr noundef nonnull readonly align 8 captures(none) dereferenceable(64) %0, i8 noundef zeroext %1) local_unnamed_addr #17 align 2 {
  %3 = getelementptr inbounds nuw i8, ptr %0, i64 40
  %4 = load i64, ptr %3, align 8, !tbaa !159
  %5 = zext i8 %1 to i64
  %6 = add nuw nsw i64 %5, 4294967231
  %7 = and i64 %6, 4294967295
  %8 = shl nuw i64 1, %7
  %9 = and i64 %4, %8
  %10 = icmp ne i64 %9, 0
  ret i1 %10
}